; Function Attrs: nounwind uwtable
define ptr @l___private_Init_Prelude_0__Lean_eraseMacroScopesAux(ptr noundef %0) local_unnamed_addr #0 {
  br label %.backedge

.backedge:                                        ; preds = %.backedge.backedge, %1
  %.014 = phi ptr [ %0, %1 ], [ %.014.be, %.backedge.backedge ]
  %2 = ptrtoint ptr %.014 to i64
  %3 = and i64 %2, 1
  %.not.i = icmp eq i64 %3, 0
  br i1 %.not.i, label %7, label %4

4:                                                ; preds = %.backedge
  %5 = lshr i64 %2, 1
  %6 = trunc i64 %5 to i32
  br label %lean_obj_tag.exit

7:                                                ; preds = %.backedge
  %8 = getelementptr i8, ptr %.014, i64 4
  %.val.i = load i32, ptr %8, align 4
  %9 = lshr i32 %.val.i, 24
  br label %lean_obj_tag.exit

lean_obj_tag.exit:                                ; preds = %4, %7
  %.0.i = phi i32 [ %6, %4 ], [ %9, %7 ]
  switch i32 %.0.i, label %30 [
    i32 0, label %lean_inc.exit.thread
    i32 1, label %10
  ]

10:                                               ; preds = %lean_obj_tag.exit
  %11 = getelementptr inbounds nuw i8, ptr %.014, i64 8
  %12 = load ptr, ptr %11, align 8, !tbaa !10
  %13 = getelementptr inbounds nuw i8, ptr %.014, i64 16
  %14 = load ptr, ptr %13, align 8, !tbaa !10
  %15 = load ptr, ptr @l___private_Init_Prelude_0__Lean_eraseMacroScopesAux___closed__1, align 8, !tbaa !10
  %16 = icmp eq ptr %14, %15
  br i1 %16, label %lean_string_dec_eq.exit.thread18, label %17

17:                                               ; preds = %10
  %18 = getelementptr i8, ptr %14, i64 8
  %.val.i.i = load i64, ptr %18, align 8, !tbaa !17
  %19 = getelementptr i8, ptr %15, i64 8
  %.val7.i.i = load i64, ptr %19, align 8, !tbaa !17
  %20 = icmp eq i64 %.val.i.i, %.val7.i.i
  br i1 %20, label %lean_string_dec_eq.exit, label %.backedge.backedge

lean_string_dec_eq.exit:                          ; preds = %17
  %21 = tail call zeroext i1 @lean_string_eq_cold(ptr noundef nonnull %14, ptr noundef nonnull %15) #11
  br i1 %21, label %lean_string_dec_eq.exit.thread18, label %.backedge.backedge

.backedge.backedge:                               ; preds = %lean_string_dec_eq.exit, %17, %30
  %.014.be = phi ptr [ %32, %30 ], [ %12, %17 ], [ %12, %lean_string_dec_eq.exit ]
  br label %.backedge

lean_string_dec_eq.exit.thread18:                 ; preds = %10, %lean_string_dec_eq.exit
  %22 = ptrtoint ptr %12 to i64
  %23 = and i64 %22, 1
  %.not = icmp eq i64 %23, 0
  br i1 %.not, label %24, label %lean_inc.exit.thread

24:                                               ; preds = %lean_string_dec_eq.exit.thread18
  %.val.i16 = load i32, ptr %12, align 4, !tbaa !4
  %25 = icmp sgt i32 %.val.i16, 0
  br i1 %25, label %26, label %28, !prof !9

26:                                               ; preds = %24
  %27 = add nuw i32 %.val.i16, 1
  store i32 %27, ptr %12, align 4, !tbaa !4
  br label %lean_inc.exit.thread

28:                                               ; preds = %24
  %.not.i17 = icmp eq i32 %.val.i16, 0
  br i1 %.not.i17, label %lean_inc.exit.thread, label %29

29:                                               ; preds = %28
  tail call void @lean_inc_ref_cold(ptr noundef nonnull %12) #11
  br label %lean_inc.exit.thread

30:                                               ; preds = %lean_obj_tag.exit
  %31 = getelementptr inbounds nuw i8, ptr %.014, i64 8
  %32 = load ptr, ptr %31, align 8, !tbaa !10
  br label %.backedge.backedge

lean_inc.exit.thread:                             ; preds = %lean_obj_tag.exit, %lean_string_dec_eq.exit.thread18, %26, %28, %29
  %.1 = phi ptr [ %12, %29 ], [ %12, %28 ], [ %12, %26 ], [ %12, %lean_string_dec_eq.exit.thread18 ], [ inttoptr (i64 1 to ptr), %lean_obj_tag.exit ]
  ret ptr %.1
}